; Function Attrs: mustprogress nofree norecurse nosync nounwind willreturn memory(read, inaccessiblemem: none) uwtable
define hidden noundef ptr @_ZNK6hermes5irgen10LReference14castAsVariableEv(ptr nocapture noundef nonnull readonly align 8 dereferenceable(48) %this) local_unnamed_addr #4 align 2 {
entry:
  %0 = load i32, ptr %this, align 8
  %cmp = icmp eq i32 %0, 2
  br i1 %cmp, label %cond.true, label %cond.end

cond.true:                                        ; preds = %entry
  %1 = getelementptr inbounds i8, ptr %this, i64 24
  %2 = load ptr, ptr %1, align 8
  %tobool.not.i = icmp eq ptr %2, null
  br i1 %tobool.not.i, label %cond.end, label %land.lhs.true.i

land.lhs.true.i:                                  ; preds = %cond.true
  %3 = load i8, ptr %2, align 8
  %cmp.i.i.i.i.i.i.i = icmp eq i8 %3, 124
  %spec.select.i = select i1 %cmp.i.i.i.i.i.i.i, ptr %2, ptr null
  br label %cond.end

cond.end:                                         ; preds = %land.lhs.true.i, %cond.true, %entry
  %cond = phi ptr [ null, %entry ], [ null, %cond.true ], [ %spec.select.i, %land.lhs.true.i ]
  ret ptr %cond
}